target datalayout = "e-m:e-p270:32:32-p271:32:32-p272:64:64-i64:64-i128:128-f80:128-n8:16:32:64-S128"
target triple = "x86_64-pc-linux-gnu"

%struct.timespec = type { i64, i64 }
%struct.conmgr_callbacks_t = type { ptr, ptr }
%union.pthread_mutex_t = type { %struct.__pthread_mutex_s }
%struct.__pthread_mutex_s = type { i32, i32, i32, i32, i32, i16, i16, %struct.__pthread_internal_list }
%struct.__pthread_internal_list = type { ptr, ptr }
%struct.event_signal_t = type { ptr, %union.pthread_cond_t, i32, i32 }
%union.pthread_cond_t = type { %struct.__pthread_cond_s }
%struct.__pthread_cond_s = type { %union.__atomic_wide_counter, %union.__atomic_wide_counter, [2 x i32], [2 x i32], i32, i32, [2 x i32] }
%union.__atomic_wide_counter = type { i64 }
%struct.slurm_conf_t = type { i64, ptr, i16, ptr, ptr, ptr, ptr, ptr, i16, ptr, ptr, ptr, ptr, ptr, ptr, ptr, i16, ptr, ptr, ptr, ptr, i16, ptr, ptr, ptr, i64, ptr, ptr, ptr, ptr, i16, ptr, ptr, i16, i32, ptr, i32, ptr, i32, i32, ptr, ptr, i64, i64, ptr, i16, i16, ptr, i32, i32, ptr, i32, ptr, i32, i16, i16, i16, ptr, i16, i16, ptr, ptr, i32, i16, i16, ptr, i32, i16, ptr, ptr, ptr, ptr, i16, ptr, ptr, ptr, ptr, i32, ptr, ptr, ptr, ptr, i16, i16, ptr, i32, i32, i32, i16, i16, ptr, ptr, i16, ptr, ptr, i32, i32, i32, i32, i32, i64, i32, i32, i16, ptr, ptr, i32, ptr, ptr, ptr, i16, i32, ptr, ptr, i16, ptr, ptr, i32, i16, ptr, ptr, ptr, ptr, i32, i32, i16, i16, i32, ptr, i16, ptr, i32, i32, i32, i32, i32, i32, ptr, i16, ptr, ptr, i32, i16, ptr, i32, i16, i16, ptr, ptr, ptr, i16, ptr, ptr, ptr, ptr, i16, i16, ptr, i16, ptr, i16, ptr, i16, ptr, i16, ptr, ptr, ptr, ptr, i16, ptr, ptr, ptr, i32, ptr, i32, ptr, ptr, i16, ptr, ptr, i32, i16, ptr, ptr, i16, i16, ptr, i16, ptr, ptr, ptr, i32, ptr, i16, i16, ptr, ptr, ptr, ptr, ptr, ptr, ptr, ptr, i16, i32, i16, ptr, ptr, ptr, ptr, i32, ptr, ptr, ptr, i16, ptr, ptr, ptr, i16, ptr, i16, ptr, i16, i16, ptr }
%struct.conmgr_t = type { i32, i32, %struct.timespec, %struct.timespec, %struct.timespec, i32, ptr, ptr, ptr, i8, i8, i64, %struct.timespec, i8, i8, i8, i8, i8, i32, ptr, ptr, %struct.conmgr_callbacks_t, %union.pthread_mutex_t, %struct.anon, %struct.anon.1, %struct.event_signal_t, %struct.event_signal_t, %struct.event_signal_t, %struct.event_signal_t }
%struct.anon = type { i32, ptr, i32, i32, i8, i32 }
%struct.anon.1 = type { i8, i8, %struct.event_signal_t, %struct.event_signal_t }
%union.pthread_attr_t = type { i64, [48 x i8] }

@.str.6 = private unnamed_addr constant [29 x i8] c"%s: pthread_mutex_lock(): %m\00", align 1
@.str.9 = private unnamed_addr constant [31 x i8] c"%s: pthread_mutex_unlock(): %m\00", align 1
@slurm_conf = external global %struct.slurm_conf_t, align 8
@__func__.conmgr_run = private unnamed_addr constant [11 x i8] c"conmgr_run\00", align 1
@.str.12 = private unnamed_addr constant [52 x i8] c"CONMGR: %s: refusing to run when conmgr is shutdown\00", align 1
@.str.13 = private unnamed_addr constant [22 x i8] c"pthread_attr_init: %m\00", align 1
@.str.14 = private unnamed_addr constant [26 x i8] c"pthread_attr_setscope: %m\00", align 1
@.str.15 = private unnamed_addr constant [30 x i8] c"pthread_attr_setstacksize: %m\00", align 1
@.str.16 = private unnamed_addr constant [28 x i8] c"%s: pthread_create error %m\00", align 1
@.str.17 = private unnamed_addr constant [55 x i8] c"pthread_attr_destroy failed, possible memory leak!: %m\00", align 1

; Function Attrs: nounwind uwtable
define dso_local i32 @conmgr_run(i1 noundef zeroext %0) #0 {
  %2 = alloca i32, align 4
  %3 = alloca i8, align 1
  %4 = alloca i32, align 4
  %5 = alloca i8, align 1
  %6 = alloca i32, align 4
  %7 = alloca i32, align 4
  %8 = alloca i32, align 4
  %9 = alloca %union.pthread_attr_t, align 8
  %10 = alloca i32, align 4
  %11 = alloca i32, align 4
  %12 = alloca i32, align 4
  %13 = alloca i32, align 4
  %14 = alloca i32, align 4
  %15 = alloca i32, align 4
  %16 = zext i1 %0 to i8
  store i8 %16, ptr %3, align 1
  call void @llvm.lifetime.start.p0(i64 4, ptr %4) #8
  store i32 0, ptr %4, align 4
  call void @llvm.lifetime.start.p0(i64 1, ptr %5) #8
  store i8 0, ptr %5, align 1
  br label %17

17:                                               ; preds = %1
  call void @llvm.lifetime.start.p0(i64 4, ptr %6) #8
  %18 = call i32 @pthread_mutex_lock(ptr noundef getelementptr inbounds nuw (%struct.conmgr_t, ptr @mgr, i32 0, i32 22)) #8
  store i32 %18, ptr %6, align 4
  %19 = load i32, ptr %6, align 4
  %20 = icmp ne i32 %19, 0
  br i1 %20, label %21, label %24

21:                                               ; preds = %17
  %22 = load i32, ptr %6, align 4
  %23 = call ptr @__errno_location() #9
  store i32 %22, ptr %23, align 4
  call void (ptr, ...) @fatal_abort(ptr noundef @.str.6, ptr noundef @__func__.conmgr_run) #10
  unreachable

24:                                               ; preds = %17
  call void @llvm.lifetime.end.p0(i64 4, ptr %6) #8
  br label %25

25:                                               ; preds = %24
  br label %26

26:                                               ; preds = %25
  %27 = load i8, ptr getelementptr inbounds nuw (%struct.conmgr_t, ptr @mgr, i32 0, i32 14), align 1, !range !8, !noundef !9
  %28 = trunc i8 %27 to i1
  br i1 %28, label %29, label %57

29:                                               ; preds = %26
  br label %30

30:                                               ; preds = %29
  %31 = load i64, ptr getelementptr inbounds nuw (%struct.slurm_conf_t, ptr @slurm_conf, i32 0, i32 42), align 8
  %32 = and i64 %31, 512
  %33 = icmp ne i64 %32, 0
  br i1 %33, label %34, label %42

34:                                               ; preds = %30
  br label %35

35:                                               ; preds = %34
  %36 = call i32 @get_log_level()
  %37 = icmp sge i32 %36, 4
  br i1 %37, label %38, label %39

38:                                               ; preds = %35
  call void (i32, ptr, ...) @log_var(i32 noundef 4, ptr noundef @.str.12, ptr noundef @__func__.conmgr_run)
  br label %39

39:                                               ; preds = %38, %35
  br label %40

40:                                               ; preds = %39
  br label %41

41:                                               ; preds = %40
  br label %42

42:                                               ; preds = %41, %30
  br label %43

43:                                               ; preds = %42
  br label %44

44:                                               ; preds = %43
  %45 = load i32, ptr getelementptr inbounds nuw (%struct.conmgr_t, ptr @mgr, i32 0, i32 18), align 8
  store i32 %45, ptr %4, align 4
  br label %46

46:                                               ; preds = %44
  call void @llvm.lifetime.start.p0(i64 4, ptr %7) #8
  %47 = call i32 @pthread_mutex_unlock(ptr noundef getelementptr inbounds nuw (%struct.conmgr_t, ptr @mgr, i32 0, i32 22)) #8
  store i32 %47, ptr %7, align 4
  %48 = load i32, ptr %7, align 4
  %49 = icmp ne i32 %48, 0
  br i1 %49, label %50, label %53

50:                                               ; preds = %46
  %51 = load i32, ptr %7, align 4
  %52 = call ptr @__errno_location() #9
  store i32 %51, ptr %52, align 4
  call void (ptr, ...) @fatal_abort(ptr noundef @.str.9, ptr noundef @__func__.conmgr_run) #10
  unreachable

53:                                               ; preds = %46
  call void @llvm.lifetime.end.p0(i64 4, ptr %7) #8
  br label %54

54:                                               ; preds = %53
  br label %55

55:                                               ; preds = %54
  %56 = load i32, ptr %4, align 4
  store i32 %56, ptr %2, align 4
  store i32 1, ptr %8, align 4
  br label %158

57:                                               ; preds = %26
  %58 = load i64, ptr getelementptr inbounds nuw (%struct.conmgr_t, ptr @mgr, i32 0, i32 11), align 8
  %59 = icmp ne i64 %58, 0
  br i1 %59, label %60, label %61

60:                                               ; preds = %57
  store i8 1, ptr %5, align 1
  br label %115

61:                                               ; preds = %57
  %62 = load i8, ptr %3, align 1, !range !8, !noundef !9
  %63 = trunc i8 %62 to i1
  br i1 %63, label %112, label %64

64:                                               ; preds = %61
  br label %65

65:                                               ; preds = %64
  call void @llvm.lifetime.start.p0(i64 56, ptr %9) #8
  call void @llvm.lifetime.start.p0(i64 4, ptr %10) #8
  br label %66

66:                                               ; preds = %65
  call void @llvm.lifetime.start.p0(i64 4, ptr %11) #8
  %67 = call i32 @pthread_attr_init(ptr noundef %9) #8
  store i32 %67, ptr %11, align 4
  %68 = load i32, ptr %11, align 4
  %69 = icmp ne i32 %68, 0
  br i1 %69, label %70, label %73

70:                                               ; preds = %66
  %71 = load i32, ptr %11, align 4
  %72 = call ptr @__errno_location() #9
  store i32 %71, ptr %72, align 4
  call void (ptr, ...) @fatal(ptr noundef @.str.13) #10
  unreachable

73:                                               ; preds = %66
  %74 = call i32 @pthread_attr_setscope(ptr noundef %9, i32 noundef 0) #8
  store i32 %74, ptr %11, align 4
  %75 = load i32, ptr %11, align 4
  %76 = icmp ne i32 %75, 0
  br i1 %76, label %77, label %81

77:                                               ; preds = %73
  %78 = load i32, ptr %11, align 4
  %79 = call ptr @__errno_location() #9
  store i32 %78, ptr %79, align 4
  %80 = call i32 (ptr, ...) @error(ptr noundef @.str.14)
  br label %81

81:                                               ; preds = %77, %73
  %82 = call i32 @pthread_attr_setstacksize(ptr noundef %9, i64 noundef 1048576) #8
  store i32 %82, ptr %11, align 4
  %83 = load i32, ptr %11, align 4
  %84 = icmp ne i32 %83, 0
  br i1 %84, label %85, label %89

85:                                               ; preds = %81
  %86 = load i32, ptr %11, align 4
  %87 = call ptr @__errno_location() #9
  store i32 %86, ptr %87, align 4
  %88 = call i32 (ptr, ...) @error(ptr noundef @.str.15)
  br label %89

89:                                               ; preds = %85, %81
  call void @llvm.lifetime.end.p0(i64 4, ptr %11) #8
  br label %90

90:                                               ; preds = %89
  br label %91

91:                                               ; preds = %90
  %92 = call i32 @pthread_create(ptr noundef getelementptr inbounds nuw (%struct.conmgr_t, ptr @mgr, i32 0, i32 11), ptr noundef %9, ptr noundef @watch_thread, ptr noundef null) #8
  store i32 %92, ptr %10, align 4
  %93 = load i32, ptr %10, align 4
  %94 = icmp ne i32 %93, 0
  br i1 %94, label %95, label %98

95:                                               ; preds = %91
  %96 = load i32, ptr %10, align 4
  %97 = call ptr @__errno_location() #9
  store i32 %96, ptr %97, align 4
  call void (ptr, ...) @fatal(ptr noundef @.str.16, ptr noundef @__func__.conmgr_run) #10
  unreachable

98:                                               ; preds = %91
  br label %99

99:                                               ; preds = %98
  call void @llvm.lifetime.start.p0(i64 4, ptr %12) #8
  %100 = call i32 @pthread_attr_destroy(ptr noundef %9) #8
  store i32 %100, ptr %12, align 4
  %101 = load i32, ptr %12, align 4
  %102 = icmp ne i32 %101, 0
  br i1 %102, label %103, label %107

103:                                              ; preds = %99
  %104 = load i32, ptr %12, align 4
  %105 = call ptr @__errno_location() #9
  store i32 %104, ptr %105, align 4
  %106 = call i32 (ptr, ...) @error(ptr noundef @.str.17)
  br label %107

107:                                              ; preds = %103, %99
  call void @llvm.lifetime.end.p0(i64 4, ptr %12) #8
  br label %108

108:                                              ; preds = %107
  br label %109

109:                                              ; preds = %108
  call void @llvm.lifetime.end.p0(i64 4, ptr %10) #8
  call void @llvm.lifetime.end.p0(i64 56, ptr %9) #8
  br label %110

110:                                              ; preds = %109
  br label %111

111:                                              ; preds = %110
  br label %114

112:                                              ; preds = %61
  %113 = call i64 @pthread_self() #9
  store i64 %113, ptr getelementptr inbounds nuw (%struct.conmgr_t, ptr @mgr, i32 0, i32 11), align 8
  br label %114

114:                                              ; preds = %112, %111
  br label %115

115:                                              ; preds = %114, %60
  br label %116

116:                                              ; preds = %115
  call void @llvm.lifetime.start.p0(i64 4, ptr %13) #8
  %117 = call i32 @pthread_mutex_unlock(ptr noundef getelementptr inbounds nuw (%struct.conmgr_t, ptr @mgr, i32 0, i32 22)) #8
  store i32 %117, ptr %13, align 4
  %118 = load i32, ptr %13, align 4
  %119 = icmp ne i32 %118, 0
  br i1 %119, label %120, label %123

120:                                              ; preds = %116
  %121 = load i32, ptr %13, align 4
  %122 = call ptr @__errno_location() #9
  store i32 %121, ptr %122, align 4
  call void (ptr, ...) @fatal_abort(ptr noundef @.str.9, ptr noundef @__func__.conmgr_run) #10
  unreachable

123:                                              ; preds = %116
  call void @llvm.lifetime.end.p0(i64 4, ptr %13) #8
  br label %124

124:                                              ; preds = %123
  br label %125

125:                                              ; preds = %124
  %126 = load i8, ptr %3, align 1, !range !8, !noundef !9
  %127 = trunc i8 %126 to i1
  br i1 %127, label %128, label %135

128:                                              ; preds = %125
  %129 = load i8, ptr %5, align 1, !range !8, !noundef !9
  %130 = trunc i8 %129 to i1
  br i1 %130, label %131, label %132

131:                                              ; preds = %128
  call void @wait_for_watch()
  br label %134

132:                                              ; preds = %128
  %133 = call ptr @watch(ptr noundef null)
  br label %134

134:                                              ; preds = %132, %131
  br label %135

135:                                              ; preds = %134, %125
  br label %136

136:                                              ; preds = %135
  call void @llvm.lifetime.start.p0(i64 4, ptr %14) #8
  %137 = call i32 @pthread_mutex_lock(ptr noundef getelementptr inbounds nuw (%struct.conmgr_t, ptr @mgr, i32 0, i32 22)) #8
  store i32 %137, ptr %14, align 4
  %138 = load i32, ptr %14, align 4
  %139 = icmp ne i32 %138, 0
  br i1 %139, label %140, label %143

140:                                              ; preds = %136
  %141 = load i32, ptr %14, align 4
  %142 = call ptr @__errno_location() #9
  store i32 %141, ptr %142, align 4
  call void (ptr, ...) @fatal_abort(ptr noundef @.str.6, ptr noundef @__func__.conmgr_run) #10
  unreachable

143:                                              ; preds = %136
  call void @llvm.lifetime.end.p0(i64 4, ptr %14) #8
  br label %144

144:                                              ; preds = %143
  br label %145

145:                                              ; preds = %144
  %146 = load i32, ptr getelementptr inbounds nuw (%struct.conmgr_t, ptr @mgr, i32 0, i32 18), align 8
  store i32 %146, ptr %4, align 4
  br label %147

147:                                              ; preds = %145
  call void @llvm.lifetime.start.p0(i64 4, ptr %15) #8
  %148 = call i32 @pthread_mutex_unlock(ptr noundef getelementptr inbounds nuw (%struct.conmgr_t, ptr @mgr, i32 0, i32 22)) #8
  store i32 %148, ptr %15, align 4
  %149 = load i32, ptr %15, align 4
  %150 = icmp ne i32 %149, 0
  br i1 %150, label %151, label %154

151:                                              ; preds = %147
  %152 = load i32, ptr %15, align 4
  %153 = call ptr @__errno_location() #9
  store i32 %152, ptr %153, align 4
  call void (ptr, ...) @fatal_abort(ptr noundef @.str.9, ptr noundef @__func__.conmgr_run) #10
  unreachable

154:                                              ; preds = %147
  call void @llvm.lifetime.end.p0(i64 4, ptr %15) #8
  br label %155

155:                                              ; preds = %154
  br label %156

156:                                              ; preds = %155
  %157 = load i32, ptr %4, align 4
  store i32 %157, ptr %2, align 4
  store i32 1, ptr %8, align 4
  br label %158

158:                                              ; preds = %156, %55
  call void @llvm.lifetime.end.p0(i64 1, ptr %5) #8
  call void @llvm.lifetime.end.p0(i64 4, ptr %4) #8
  %159 = load i32, ptr %2, align 4
  ret i32 %159
}