; Function Attrs: nounwind uwtable
define dso_local i32 @conmgr_run(i1 noundef zeroext %0) local_unnamed_addr #0 {
  %2 = alloca %union.pthread_attr_t, align 8
  %3 = tail call i32 @pthread_mutex_lock(ptr noundef nonnull getelementptr inbounds nuw (i8, ptr @mgr, i64 168)) #11
  %.not = icmp eq i32 %3, 0
  br i1 %.not, label %6, label %4

4:                                                ; preds = %1
  %5 = tail call ptr @__errno_location() #12
  store i32 %3, ptr %5, align 4
  tail call void (ptr, ...) @fatal_abort(ptr noundef nonnull @.str.6, ptr noundef nonnull @__func__.conmgr_run) #13
  unreachable

6:                                                ; preds = %1
  %7 = load i8, ptr getelementptr inbounds nuw (i8, ptr @mgr, i64 121), align 1, !range !8, !noundef !9
  %8 = trunc nuw i8 %7 to i1
  br i1 %8, label %9, label %21

9:                                                ; preds = %6
  %10 = load i64, ptr getelementptr inbounds nuw (i8, ptr @slurm_conf, i64 320), align 8
  %11 = and i64 %10, 512
  %.not46 = icmp eq i64 %11, 0
  br i1 %.not46, label %16, label %12

12:                                               ; preds = %9
  %13 = tail call i32 @get_log_level() #11
  %14 = icmp sgt i32 %13, 3
  br i1 %14, label %15, label %16

15:                                               ; preds = %12
  tail call void (i32, ptr, ...) @log_var(i32 noundef 4, ptr noundef nonnull @.str.12, ptr noundef nonnull @__func__.conmgr_run) #11
  br label %16

16:                                               ; preds = %12, %15, %9
  %17 = load i32, ptr getelementptr inbounds nuw (i8, ptr @mgr, i64 128), align 8
  %18 = tail call i32 @pthread_mutex_unlock(ptr noundef nonnull getelementptr inbounds nuw (i8, ptr @mgr, i64 168)) #11
  %.not47 = icmp eq i32 %18, 0
  br i1 %.not47, label %67, label %19

19:                                               ; preds = %16
  %20 = tail call ptr @__errno_location() #12
  store i32 %18, ptr %20, align 4
  tail call void (ptr, ...) @fatal_abort(ptr noundef nonnull @.str.9, ptr noundef nonnull @__func__.conmgr_run) #13
  unreachable

21:                                               ; preds = %6
  %22 = load i64, ptr getelementptr inbounds nuw (i8, ptr @mgr, i64 96), align 8
  %.not37.not = icmp eq i64 %22, 0
  br i1 %.not37.not, label %23, label %47

23:                                               ; preds = %21
  br i1 %0, label %.thread50, label %24

24:                                               ; preds = %23
  call void @llvm.lifetime.start.p0(i64 56, ptr nonnull %2) #11
  %25 = call i32 @pthread_attr_init(ptr noundef nonnull %2) #11
  %.not38 = icmp eq i32 %25, 0
  br i1 %.not38, label %28, label %26

26:                                               ; preds = %24
  %27 = tail call ptr @__errno_location() #12
  store i32 %25, ptr %27, align 4
  call void (ptr, ...) @fatal(ptr noundef nonnull @.str.13) #13
  unreachable

28:                                               ; preds = %24
  %29 = call i32 @pthread_attr_setscope(ptr noundef nonnull %2, i32 noundef 0) #11
  %.not39 = icmp eq i32 %29, 0
  br i1 %.not39, label %33, label %30

30:                                               ; preds = %28
  %31 = tail call ptr @__errno_location() #12
  store i32 %29, ptr %31, align 4
  %32 = call i32 (ptr, ...) @error(ptr noundef nonnull @.str.14) #11
  br label %33

33:                                               ; preds = %30, %28
  %34 = call i32 @pthread_attr_setstacksize(ptr noundef nonnull %2, i64 noundef 1048576) #11
  %.not40 = icmp eq i32 %34, 0
  br i1 %.not40, label %38, label %35

35:                                               ; preds = %33
  %36 = tail call ptr @__errno_location() #12
  store i32 %34, ptr %36, align 4
  %37 = call i32 (ptr, ...) @error(ptr noundef nonnull @.str.15) #11
  br label %38

38:                                               ; preds = %35, %33
  %39 = call i32 @pthread_create(ptr noundef nonnull getelementptr inbounds nuw (i8, ptr @mgr, i64 96), ptr noundef nonnull %2, ptr noundef nonnull @watch_thread, ptr noundef null) #11
  %.not41 = icmp eq i32 %39, 0
  br i1 %.not41, label %42, label %40

40:                                               ; preds = %38
  %41 = tail call ptr @__errno_location() #12
  store i32 %39, ptr %41, align 4
  call void (ptr, ...) @fatal(ptr noundef nonnull @.str.16, ptr noundef nonnull @__func__.conmgr_run) #13
  unreachable

42:                                               ; preds = %38
  %43 = call i32 @pthread_attr_destroy(ptr noundef nonnull %2) #11
  %.not42 = icmp eq i32 %43, 0
  br i1 %.not42, label %.thread, label %44

44:                                               ; preds = %42
  %45 = tail call ptr @__errno_location() #12
  store i32 %43, ptr %45, align 4
  %46 = call i32 (ptr, ...) @error(ptr noundef nonnull @.str.17) #11
  br label %.thread

47:                                               ; preds = %21
  %48 = tail call i32 @pthread_mutex_unlock(ptr noundef nonnull getelementptr inbounds nuw (i8, ptr @mgr, i64 168)) #11
  %.not43 = icmp eq i32 %48, 0
  br i1 %.not43, label %55, label %52

.thread50:                                        ; preds = %23
  %49 = tail call i64 @pthread_self() #12
  store i64 %49, ptr getelementptr inbounds nuw (i8, ptr @mgr, i64 96), align 8
  %50 = tail call i32 @pthread_mutex_unlock(ptr noundef nonnull getelementptr inbounds nuw (i8, ptr @mgr, i64 168)) #11
  %.not4351 = icmp eq i32 %50, 0
  br i1 %.not4351, label %57, label %52

.thread:                                          ; preds = %42, %44
  call void @llvm.lifetime.end.p0(i64 56, ptr nonnull %2) #11
  %51 = call i32 @pthread_mutex_unlock(ptr noundef nonnull getelementptr inbounds nuw (i8, ptr @mgr, i64 168)) #11
  %.not4348 = icmp eq i32 %51, 0
  br i1 %.not4348, label %.thread49, label %52

52:                                               ; preds = %.thread50, %.thread, %47
  %53 = phi i32 [ %51, %.thread ], [ %48, %47 ], [ %50, %.thread50 ]
  %54 = tail call ptr @__errno_location() #12
  store i32 %53, ptr %54, align 4
  call void (ptr, ...) @fatal_abort(ptr noundef nonnull @.str.9, ptr noundef nonnull @__func__.conmgr_run) #13
  unreachable

55:                                               ; preds = %47
  br i1 %0, label %56, label %.thread49

56:                                               ; preds = %55
  tail call void @wait_for_watch() #11
  br label %.thread49

57:                                               ; preds = %.thread50
  %58 = tail call ptr @watch(ptr noundef null) #11
  br label %.thread49

.thread49:                                        ; preds = %.thread, %55, %57, %56
  %59 = call i32 @pthread_mutex_lock(ptr noundef nonnull getelementptr inbounds nuw (i8, ptr @mgr, i64 168)) #11
  %.not44 = icmp eq i32 %59, 0
  br i1 %.not44, label %62, label %60

60:                                               ; preds = %.thread49
  %61 = tail call ptr @__errno_location() #12
  store i32 %59, ptr %61, align 4
  call void (ptr, ...) @fatal_abort(ptr noundef nonnull @.str.6, ptr noundef nonnull @__func__.conmgr_run) #13
  unreachable

62:                                               ; preds = %.thread49
  %63 = load i32, ptr getelementptr inbounds nuw (i8, ptr @mgr, i64 128), align 8
  %64 = call i32 @pthread_mutex_unlock(ptr noundef nonnull getelementptr inbounds nuw (i8, ptr @mgr, i64 168)) #11
  %.not45 = icmp eq i32 %64, 0
  br i1 %.not45, label %67, label %65

65:                                               ; preds = %62
  %66 = tail call ptr @__errno_location() #12
  store i32 %64, ptr %66, align 4
  call void (ptr, ...) @fatal_abort(ptr noundef nonnull @.str.9, ptr noundef nonnull @__func__.conmgr_run) #13
  unreachable

67:                                               ; preds = %62, %16
  %.0 = phi i32 [ %17, %16 ], [ %63, %62 ]
  ret i32 %.0
}